; Function Attrs: mustprogress nounwind uwtable
define dso_local noundef ptr @_ZN5clang19OMPBarrierDirective6CreateERKNS_10ASTContextENS_14SourceLocationES4_(ptr noundef nonnull align 8 dereferenceable(23096) %0, i32 %1, i32 %2) local_unnamed_addr #6 align 2 {
  %4 = tail call noundef ptr @_ZN5clang4StmtnwEmRKNS_10ASTContextEj(i64 noundef 32, ptr noundef nonnull align 8 dereferenceable(23096) %0, i32 noundef 8) #12
  store i8 -36, ptr %4, align 8
  %5 = load i8, ptr @_ZN5clang4Stmt17StatisticsEnabledE, align 1
  %6 = trunc i8 %5 to i1
  br i1 %6, label %7, label %_ZN5clang19OMPBarrierDirectiveC2ENS_14SourceLocationES1_.exit

7:                                                ; preds = %3
  tail call void @_ZN5clang4Stmt12addStmtClassENS0_9StmtClassE(i32 noundef 220) #12
  br label %_ZN5clang19OMPBarrierDirectiveC2ENS_14SourceLocationES1_.exit

_ZN5clang19OMPBarrierDirectiveC2ENS_14SourceLocationES1_.exit: ; preds = %3, %7
  %8 = getelementptr inbounds nuw i8, ptr %4, i64 8
  store i32 5, ptr %8, align 8
  %9 = getelementptr inbounds nuw i8, ptr %4, i64 12
  store i32 %1, ptr %9, align 4
  %10 = getelementptr inbounds nuw i8, ptr %4, i64 16
  store i32 %2, ptr %10, align 8
  %11 = getelementptr inbounds nuw i8, ptr %4, i64 24
  store ptr null, ptr %11, align 8
  ret ptr %4
}